target datalayout = "e-m:e-p270:32:32-p271:32:32-p272:64:64-i64:64-i128:128-f80:128-n8:16:32:64-S128"
target triple = "x86_64-pc-linux-gnu"

%struct.Fraig_ManStruct_t_ = type { ptr, ptr, ptr, ptr, ptr, ptr, ptr, ptr, ptr, i32, i32, i32, i32, i32, i32, i32, i32, i32, i32, i32, i32, i64, i32, i32, i32, i32, i32, ptr, ptr, ptr, ptr, ptr, i32, ptr, ptr, ptr, ptr, ptr, ptr, i32, ptr, ptr, ptr, ptr, i32, i32, i32, i32, i32, i32, i32, i32, i32, i32, i32, i32, i32, i32, i32, i32, i32, i32, i32, i64, i64, i64, i64, i64, i64, i64, i64, i64, i64, i64, i64 }
%struct.Fraig_NodeVecStruct_t_ = type { i32, i32, ptr }
%struct.timespec = type { i64, i64 }

; Function Attrs: inlinehint nounwind uwtable
define internal i64 @Abc_Clock() #4 {
  %1 = alloca i64, align 8
  %2 = alloca %struct.timespec, align 8
  %3 = alloca i32, align 4
  %4 = alloca i64, align 8
  call void @llvm.lifetime.start.p0(i64 16, ptr %2) #5
  %5 = call i32 @clock_gettime(i32 noundef 1, ptr noundef %2) #5
  %6 = icmp slt i32 %5, 0
  br i1 %6, label %7, label %8

7:                                                ; preds = %0
  store i64 -1, ptr %1, align 8
  store i32 1, ptr %3, align 4
  br label %19

8:                                                ; preds = %0
  call void @llvm.lifetime.start.p0(i64 8, ptr %4) #5
  %9 = getelementptr inbounds nuw %struct.timespec, ptr %2, i32 0, i32 0
  %10 = load i64, ptr %9, align 8, !tbaa !76
  %11 = mul nsw i64 %10, 1000000
  store i64 %11, ptr %4, align 8, !tbaa !35
  %12 = getelementptr inbounds nuw %struct.timespec, ptr %2, i32 0, i32 1
  %13 = load i64, ptr %12, align 8, !tbaa !78
  %14 = mul nsw i64 %13, 1000000
  %15 = sdiv i64 %14, 1000000000
  %16 = load i64, ptr %4, align 8, !tbaa !35
  %17 = add nsw i64 %16, %15
  store i64 %17, ptr %4, align 8, !tbaa !35
  %18 = load i64, ptr %4, align 8, !tbaa !35
  store i64 %18, ptr %1, align 8
  store i32 1, ptr %3, align 4
  call void @llvm.lifetime.end.p0(i64 8, ptr %4) #5
  br label %19

19:                                               ; preds = %8, %7
  call void @llvm.lifetime.end.p0(i64 16, ptr %2) #5
  %20 = load i64, ptr %1, align 8
  ret i64 %20
}

; Function Attrs: nounwind uwtable
define void @Fraig_ManProveMiter(ptr noundef %0) #0 {
  %2 = alloca ptr, align 8
  %3 = alloca ptr, align 8
  %4 = alloca i32, align 4
  %5 = alloca i64, align 8
  %6 = alloca i32, align 4
  store ptr %0, ptr %2, align 8, !tbaa !3
  call void @llvm.lifetime.start.p0(i64 8, ptr %3) #5
  call void @llvm.lifetime.start.p0(i64 4, ptr %4) #5
  call void @llvm.lifetime.start.p0(i64 8, ptr %5) #5
  %7 = load ptr, ptr %2, align 8, !tbaa !3
  %8 = getelementptr inbounds nuw %struct.Fraig_ManStruct_t_, ptr %7, i32 0, i32 18
  %9 = load i32, ptr %8, align 4, !tbaa !46
  %10 = icmp ne i32 %9, 0
  br i1 %10, label %12, label %11

11:                                               ; preds = %1
  store i32 1, ptr %6, align 4
  br label %122

12:                                               ; preds = %1
  %13 = call i64 @Abc_Clock()
  store i64 %13, ptr %5, align 8, !tbaa !35
  store i32 0, ptr %4, align 4, !tbaa !10
  br label %14

14:                                               ; preds = %112, %12
  %15 = load i32, ptr %4, align 4, !tbaa !10
  %16 = load ptr, ptr %2, align 8, !tbaa !3
  %17 = getelementptr inbounds nuw %struct.Fraig_ManStruct_t_, ptr %16, i32 0, i32 2
  %18 = load ptr, ptr %17, align 8, !tbaa !47
  %19 = getelementptr inbounds nuw %struct.Fraig_NodeVecStruct_t_, ptr %18, i32 0, i32 1
  %20 = load i32, ptr %19, align 4, !tbaa !27
  %21 = icmp slt i32 %15, %20
  br i1 %21, label %22, label %115

22:                                               ; preds = %14
  %23 = load ptr, ptr %2, align 8, !tbaa !3
  %24 = getelementptr inbounds nuw %struct.Fraig_ManStruct_t_, ptr %23, i32 0, i32 2
  %25 = load ptr, ptr %24, align 8, !tbaa !47
  %26 = getelementptr inbounds nuw %struct.Fraig_NodeVecStruct_t_, ptr %25, i32 0, i32 2
  %27 = load ptr, ptr %26, align 8, !tbaa !30
  %28 = load i32, ptr %4, align 4, !tbaa !10
  %29 = sext i32 %28 to i64
  %30 = getelementptr inbounds ptr, ptr %27, i64 %29
  %31 = load ptr, ptr %30, align 8, !tbaa !8
  %32 = ptrtoint ptr %31 to i64
  %33 = and i64 %32, -2
  %34 = inttoptr i64 %33 to ptr
  store ptr %34, ptr %3, align 8, !tbaa !8
  %35 = load ptr, ptr %3, align 8, !tbaa !8
  %36 = load ptr, ptr %2, align 8, !tbaa !3
  %37 = getelementptr inbounds nuw %struct.Fraig_ManStruct_t_, ptr %36, i32 0, i32 3
  %38 = load ptr, ptr %37, align 8, !tbaa !43
  %39 = icmp eq ptr %35, %38
  br i1 %39, label %40, label %41

40:                                               ; preds = %22
  br label %112

41:                                               ; preds = %22
  %42 = load ptr, ptr %3, align 8, !tbaa !8
  %43 = load ptr, ptr %2, align 8, !tbaa !3
  %44 = getelementptr inbounds nuw %struct.Fraig_ManStruct_t_, ptr %43, i32 0, i32 3
  %45 = load ptr, ptr %44, align 8, !tbaa !43
  %46 = load ptr, ptr %2, align 8, !tbaa !3
  %47 = getelementptr inbounds nuw %struct.Fraig_ManStruct_t_, ptr %46, i32 0, i32 9
  %48 = load i32, ptr %47, align 8, !tbaa !48
  %49 = call i32 @Fraig_CompareSimInfo(ptr noundef %42, ptr noundef %45, i32 noundef %48, i32 noundef 1)
  %50 = icmp ne i32 %49, 0
  br i1 %50, label %52, label %51

51:                                               ; preds = %41
  br label %112

52:                                               ; preds = %41
  %53 = load ptr, ptr %2, align 8, !tbaa !3
  %54 = load ptr, ptr %2, align 8, !tbaa !3
  %55 = getelementptr inbounds nuw %struct.Fraig_ManStruct_t_, ptr %54, i32 0, i32 3
  %56 = load ptr, ptr %55, align 8, !tbaa !43
  %57 = load ptr, ptr %3, align 8, !tbaa !8
  %58 = load ptr, ptr %2, align 8, !tbaa !3
  %59 = getelementptr inbounds nuw %struct.Fraig_ManStruct_t_, ptr %58, i32 0, i32 12
  %60 = load i32, ptr %59, align 4, !tbaa !49
  %61 = call i32 @Fraig_NodeIsEquivalent(ptr noundef %53, ptr noundef %56, ptr noundef %57, i32 noundef -1, i32 noundef %60)
  %62 = icmp ne i32 %61, 0
  br i1 %62, label %63, label %111

63:                                               ; preds = %52
  %64 = load ptr, ptr %2, align 8, !tbaa !3
  %65 = getelementptr inbounds nuw %struct.Fraig_ManStruct_t_, ptr %64, i32 0, i32 2
  %66 = load ptr, ptr %65, align 8, !tbaa !47
  %67 = getelementptr inbounds nuw %struct.Fraig_NodeVecStruct_t_, ptr %66, i32 0, i32 2
  %68 = load ptr, ptr %67, align 8, !tbaa !30
  %69 = load i32, ptr %4, align 4, !tbaa !10
  %70 = sext i32 %69 to i64
  %71 = getelementptr inbounds ptr, ptr %68, i64 %70
  %72 = load ptr, ptr %71, align 8, !tbaa !8
  %73 = ptrtoint ptr %72 to i64
  %74 = and i64 %73, 1
  %75 = trunc i64 %74 to i32
  %76 = load ptr, ptr %2, align 8, !tbaa !3
  %77 = getelementptr inbounds nuw %struct.Fraig_ManStruct_t_, ptr %76, i32 0, i32 3
  %78 = load ptr, ptr %77, align 8, !tbaa !43
  %79 = load ptr, ptr %3, align 8, !tbaa !8
  %80 = call i32 @Fraig_NodeComparePhase(ptr noundef %78, ptr noundef %79)
  %81 = xor i32 %75, %80
  %82 = icmp ne i32 %81, 0
  br i1 %82, label %83, label %98

83:                                               ; preds = %63
  %84 = load ptr, ptr %2, align 8, !tbaa !3
  %85 = getelementptr inbounds nuw %struct.Fraig_ManStruct_t_, ptr %84, i32 0, i32 3
  %86 = load ptr, ptr %85, align 8, !tbaa !43
  %87 = ptrtoint ptr %86 to i64
  %88 = xor i64 %87, 1
  %89 = inttoptr i64 %88 to ptr
  %90 = load ptr, ptr %2, align 8, !tbaa !3
  %91 = getelementptr inbounds nuw %struct.Fraig_ManStruct_t_, ptr %90, i32 0, i32 2
  %92 = load ptr, ptr %91, align 8, !tbaa !47
  %93 = getelementptr inbounds nuw %struct.Fraig_NodeVecStruct_t_, ptr %92, i32 0, i32 2
  %94 = load ptr, ptr %93, align 8, !tbaa !30
  %95 = load i32, ptr %4, align 4, !tbaa !10
  %96 = sext i32 %95 to i64
  %97 = getelementptr inbounds ptr, ptr %94, i64 %96
  store ptr %89, ptr %97, align 8, !tbaa !8
  br label %110

98:                                               ; preds = %63
  %99 = load ptr, ptr %2, align 8, !tbaa !3
  %100 = getelementptr inbounds nuw %struct.Fraig_ManStruct_t_, ptr %99, i32 0, i32 3
  %101 = load ptr, ptr %100, align 8, !tbaa !43
  %102 = load ptr, ptr %2, align 8, !tbaa !3
  %103 = getelementptr inbounds nuw %struct.Fraig_ManStruct_t_, ptr %102, i32 0, i32 2
  %104 = load ptr, ptr %103, align 8, !tbaa !47
  %105 = getelementptr inbounds nuw %struct.Fraig_NodeVecStruct_t_, ptr %104, i32 0, i32 2
  %106 = load ptr, ptr %105, align 8, !tbaa !30
  %107 = load i32, ptr %4, align 4, !tbaa !10
  %108 = sext i32 %107 to i64
  %109 = getelementptr inbounds ptr, ptr %106, i64 %108
  store ptr %101, ptr %109, align 8, !tbaa !8
  br label %110

110:                                              ; preds = %98, %83
  br label %111

111:                                              ; preds = %110, %52
  br label %112

112:                                              ; preds = %111, %51, %40
  %113 = load i32, ptr %4, align 4, !tbaa !10
  %114 = add nsw i32 %113, 1
  store i32 %114, ptr %4, align 4, !tbaa !10
  br label %14, !llvm.loop !50

115:                                              ; preds = %14
  %116 = load ptr, ptr %2, align 8, !tbaa !3
  %117 = getelementptr inbounds nuw %struct.Fraig_ManStruct_t_, ptr %116, i32 0, i32 20
  %118 = load i32, ptr %117, align 4, !tbaa !51
  %119 = icmp ne i32 %118, 0
  br i1 %119, label %120, label %121

120:                                              ; preds = %115
  br label %121

121:                                              ; preds = %120, %115
  store i32 0, ptr %6, align 4
  br label %122

122:                                              ; preds = %121, %11
  call void @llvm.lifetime.end.p0(i64 8, ptr %5) #5
  call void @llvm.lifetime.end.p0(i64 4, ptr %4) #5
  call void @llvm.lifetime.end.p0(i64 8, ptr %3) #5
  %123 = load i32, ptr %6, align 4
  switch i32 %123, label %125 [
    i32 0, label %124
    i32 1, label %124
  ]

124:                                              ; preds = %122, %122
  ret void

125:                                              ; preds = %122
  unreachable
}