; Function Attrs: nounwind uwtable
define void @Fraig_ManProveMiter(ptr noundef %0) local_unnamed_addr #0 {
  %2 = alloca %struct.timespec, align 8
  %3 = getelementptr inbounds nuw i8, ptr %0, i64 108
  %4 = load i32, ptr %3, align 4, !tbaa !49
  %.not = icmp eq i32 %4, 0
  br i1 %.not, label %.loopexit, label %Abc_Clock.exit

Abc_Clock.exit:                                   ; preds = %1
  call void @llvm.lifetime.start.p0(i64 16, ptr nonnull %2) #10
  %5 = call i32 @clock_gettime(i32 noundef 1, ptr noundef nonnull %2) #10
  call void @llvm.lifetime.end.p0(i64 16, ptr nonnull %2) #10
  %6 = getelementptr inbounds nuw i8, ptr %0, i64 16
  %7 = load ptr, ptr %6, align 8, !tbaa !50
  %8 = getelementptr inbounds nuw i8, ptr %7, i64 4
  %9 = load i32, ptr %8, align 4, !tbaa !23
  %10 = icmp sgt i32 %9, 0
  br i1 %10, label %.lr.ph, label %.loopexit

.lr.ph:                                           ; preds = %Abc_Clock.exit
  %11 = getelementptr inbounds nuw i8, ptr %0, i64 24
  %12 = getelementptr inbounds nuw i8, ptr %0, i64 72
  %13 = getelementptr inbounds nuw i8, ptr %0, i64 84
  br label %14

14:                                               ; preds = %.lr.ph, %56
  %15 = phi ptr [ %7, %.lr.ph ], [ %57, %56 ]
  %indvars.iv = phi i64 [ 0, %.lr.ph ], [ %indvars.iv.next, %56 ]
  %16 = getelementptr inbounds nuw i8, ptr %15, i64 8
  %17 = load ptr, ptr %16, align 8, !tbaa !26
  %18 = getelementptr inbounds nuw ptr, ptr %17, i64 %indvars.iv
  %19 = load ptr, ptr %18, align 8, !tbaa !27
  %20 = ptrtoint ptr %19 to i64
  %21 = and i64 %20, -2
  %22 = inttoptr i64 %21 to ptr
  %23 = load ptr, ptr %11, align 8, !tbaa !44
  %24 = icmp eq ptr %23, %22
  br i1 %24, label %56, label %25

25:                                               ; preds = %14
  %26 = load i32, ptr %12, align 8, !tbaa !51
  %27 = call i32 @Fraig_CompareSimInfo(ptr noundef %22, ptr noundef %23, i32 noundef %26, i32 noundef 1) #10
  %.not27 = icmp eq i32 %27, 0
  br i1 %.not27, label %._crit_edge, label %28

._crit_edge:                                      ; preds = %25
  %.pre = load ptr, ptr %6, align 8, !tbaa !50
  br label %56

28:                                               ; preds = %25
  %29 = load ptr, ptr %11, align 8, !tbaa !44
  %30 = load i32, ptr %13, align 4, !tbaa !52
  %31 = call i32 @Fraig_NodeIsEquivalent(ptr noundef nonnull %0, ptr noundef %29, ptr noundef %22, i32 noundef -1, i32 noundef %30)
  %.not28 = icmp eq i32 %31, 0
  %.pre32 = load ptr, ptr %6, align 8, !tbaa !50
  br i1 %.not28, label %56, label %32

32:                                               ; preds = %28
  %33 = getelementptr inbounds nuw i8, ptr %.pre32, i64 8
  %34 = load ptr, ptr %33, align 8, !tbaa !26
  %35 = getelementptr inbounds nuw ptr, ptr %34, i64 %indvars.iv
  %36 = load ptr, ptr %35, align 8, !tbaa !27
  %37 = ptrtoint ptr %36 to i64
  %38 = trunc i64 %37 to i32
  %39 = and i32 %38, 1
  %40 = load ptr, ptr %11, align 8, !tbaa !44
  %41 = call i32 @Fraig_NodeComparePhase(ptr noundef %40, ptr noundef %22) #10
  %.not29 = icmp eq i32 %39, %41
  %42 = load ptr, ptr %11, align 8, !tbaa !44
  br i1 %.not29, label %51, label %43

43:                                               ; preds = %32
  %44 = ptrtoint ptr %42 to i64
  %45 = xor i64 %44, 1
  %46 = inttoptr i64 %45 to ptr
  %47 = load ptr, ptr %6, align 8, !tbaa !50
  %48 = getelementptr inbounds nuw i8, ptr %47, i64 8
  %49 = load ptr, ptr %48, align 8, !tbaa !26
  %50 = getelementptr inbounds nuw ptr, ptr %49, i64 %indvars.iv
  store ptr %46, ptr %50, align 8, !tbaa !27
  br label %56

51:                                               ; preds = %32
  %52 = load ptr, ptr %6, align 8, !tbaa !50
  %53 = getelementptr inbounds nuw i8, ptr %52, i64 8
  %54 = load ptr, ptr %53, align 8, !tbaa !26
  %55 = getelementptr inbounds nuw ptr, ptr %54, i64 %indvars.iv
  store ptr %42, ptr %55, align 8, !tbaa !27
  br label %56

56:                                               ; preds = %._crit_edge, %28, %51, %43, %14
  %57 = phi ptr [ %.pre, %._crit_edge ], [ %.pre32, %28 ], [ %52, %51 ], [ %47, %43 ], [ %15, %14 ]
  %indvars.iv.next = add nuw nsw i64 %indvars.iv, 1
  %58 = getelementptr inbounds nuw i8, ptr %57, i64 4
  %59 = load i32, ptr %58, align 4, !tbaa !23
  %60 = sext i32 %59 to i64
  %61 = icmp slt i64 %indvars.iv.next, %60
  br i1 %61, label %14, label %.loopexit, !llvm.loop !53

.loopexit:                                        ; preds = %56, %Abc_Clock.exit, %1
  ret void
}